(dp1
S'files'
p2
(dp3
S'pov_texture_Texture'
p4
(dp5
S'index'
p6
(dp7
S'html_filename'
p8
S'pov_texture_Texture.html'
p9
sS'name'
p10
S'pov.texture.Texture'
p11
sS'nums'
p12
ccopy_reg
_reconstructor
p13
(ccoverage.results
Numbers
p14
c__builtin__
object
p15
NtRp16
(dp17
S'n_files'
p18
I1
sS'n_branches'
p19
I0
sS'n_statements'
p20
I5
sS'n_excluded'
p21
I0
sS'n_partial_branches'
p22
I0
sS'n_missing'
p23
I0
sS'n_missing_branches'
p24
I0
sbssS'hash'
p25
S'kNT\x16\xa7\x11\xda\xf6\x99\xe9x\xb5\xa1\xf1\xaby'
p26
ssS'pov_other'
p27
(dp28
g6
(dp29
g8
S'pov_other.html'
p30
sg10
S'pov.other'
p31
sg12
g13
(g14
g15
NtRp32
(dp33
g18
I1
sg19
I0
sg20
I1
sg21
I0
sg22
I0
sg23
I0
sg24
I0
sbssg25
S'\xf8\xec2\x9d.\x12-\x8c\xff\xb1\xad\xfe\x91+(\xd0'
p34
ssS'pov_texture'
p35
(dp36
g6
(dp37
g8
S'pov_texture.html'
p38
sg10
S'pov.texture'
p39
sg12
g13
(g14
g15
NtRp40
(dp41
g18
I1
sg19
I0
sg20
I1
sg21
I0
sg22
I0
sg23
I0
sg24
I0
sbssg25
S'\xf8\xec2\x9d.\x12-\x8c\xff\xb1\xad\xfe\x91+(\xd0'
p42
ssS'pov_language_directive_Default'
p43
(dp44
g6
(dp45
g8
S'pov_language_directive_Default.html'
p46
sg10
S'pov.language_directive.Default'
p47
sg12
g13
(g14
g15
NtRp48
(dp49
g18
I1
sg19
I0
sg20
I17
sg21
I0
sg22
I0
sg23
I0
sg24
I0
sbssg25
S'D\nO\x9a\xc2B\xc1<\xe5\x00\xb4\x14\xb4\x04\xb1\xd1'
p50
ssS'pov_finite_solid'
p51
(dp52
g6
(dp53
g8
S'pov_finite_solid.html'
p54
sg10
S'pov.finite_solid'
p55
sg12
g13
(g14
g15
NtRp56
(dp57
g18
I1
sg19
I0
sg20
I1
sg21
I0
sg22
I0
sg23
I0
sg24
I0
sbssg25
S'\xf8\xec2\x9d.\x12-\x8c\xff\xb1\xad\xfe\x91+(\xd0'
p58
ssS'pov'
p59
(dp60
g6
(dp61
g8
S'pov.html'
p62
sg10
g59
sg12
g13
(g14
g15
NtRp63
(dp64
g18
I1
sg19
I0
sg20
I2
sg21
I0
sg22
I0
sg23
I0
sg24
I0
sbssg25
S"'$\xf0\xb54\xdc<{\xd8Y\x88\xc2\x95\xaeh\xdc"
p65
ssS'pov_finite_solid_Box'
p66
(dp67
g6
(dp68
S'html_filename'
p69
S'pov_finite_solid_Box.html'
p70
sS'name'
p71
S'pov.finite_solid.Box'
p72
sS'nums'
p73
g13
(g14
g15
NtRp74
(dp75
g18
I1
sg19
I0
sg20
I19
sg21
I0
sg22
I0
sg23
I0
sg24
I0
sbssg25
S'\xa2\xa8\x1a}\xba\xa4\x0f\xc2\xd38\xfa\x1f\x01oYq'
p76
ssS'pov_basic_Color'
p77
(dp78
g6
(dp79
g8
S'pov_basic_Color.html'
p80
sg10
S'pov.basic.Color'
p81
sg12
g13
(g14
g15
NtRp82
(dp83
g18
I1
sg19
I0
sg20
I52
sg21
I0
sg22
I0
sg23
I2
sg24
I0
sbssg25
S'\xff\xba\xfd\xf3:\xd6\xb7~#\x83\x86l\x88<\xb4\xcf'
p84
ssS'pov_finite_solid_HeightField'
p85
(dp86
g6
(dp87
g8
S'pov_finite_solid_HeightField.html'
p88
sg10
S'pov.finite_solid.HeightField'
p89
sg12
g13
(g14
g15
NtRp90
(dp91
g18
I1
sg19
I0
sg20
I22
sg21
I0
sg22
I0
sg23
I8
sg24
I0
sbssg25
S'\x8fZ1\xdby\x1b\xdf\xe7\x0e\x91\xcc\x04\xe4Vwh'
p92
ssS'pov_include_colors_inc'
p93
(dp94
g6
(dp95
g8
S'pov_include_colors_inc.html'
p96
sg10
S'pov.include.colors_inc'
p97
sg12
g13
(g14
g15
NtRp98
(dp99
g18
I1
sg19
I0
sg20
I218
sg21
I0
sg22
I0
sg23
I75
sg24
I0
sbssg25
S'\xf6#\x00\xc5\x9f \x1e\xbb\x7f\x92\xda\x13\x96\xa5\xef\\'
p100
ssS'pov_atmeff_SkySphere'
p101
(dp102
g6
(dp103
g8
S'pov_atmeff_SkySphere.html'
p104
sg10
S'pov.atmeff.SkySphere'
p105
sg12
g13
(g14
g15
NtRp106
(dp107
g18
I1
sg19
I0
sg20
I14
sg21
I0
sg22
I0
sg23
I0
sg24
I0
sbssg25
S"M.\xa0H\xc1\xb3\x9c-'\x86_0\xd0\\\xc67"
p108
ssS'pov_basic_SceneItem'
p109
(dp110
g6
(dp111
g69
S'pov_basic_SceneItem.html'
p112
sg71
S'pov.basic.SceneItem'
p113
sg73
g13
(g14
g15
NtRp114
(dp115
g18
I1
sg19
I0
sg20
I182
sg21
I0
sg22
I0
sg23
I7
sg24
I0
sbssg25
S'8 \xf2R\xe7\xa1\xfc\x99T\xfb\xbf\xe4\xceAG\x93'
p116
ssS'pov_basic_PoVObject'
p117
(dp118
g6
(dp119
g8
S'pov_basic_PoVObject.html'
p120
sg10
S'pov.basic.PoVObject'
p121
sg12
g13
(g14
g15
NtRp122
(dp123
g18
I1
sg19
I0
sg20
I3
sg21
I0
sg22
I0
sg23
I0
sg24
I0
sbssg25
S'\xec\xda\xf8\xd6\x89\xc8\xe7`\x8f\x0c\xe35|\xf5\xa9T'
p124
ssS'pov_texture_Finish'
p125
(dp126
g6
(dp127
g8
S'pov_texture_Finish.html'
p128
sg10
S'pov.texture.Finish'
p129
sg12
g13
(g14
g15
NtRp130
(dp131
g18
I1
sg19
I0
sg20
I8
sg21
I0
sg22
I0
sg23
I0
sg24
I0
sbssg25
S'\xcf<\x8dn\xd5\x90Z\x98\x14-\xbao\xe5\xce\xefN'
p132
ssS'pov_texture_ImageMap'
p133
(dp134
g6
(dp135
g8
S'pov_texture_ImageMap.html'
p136
sg10
S'pov.texture.ImageMap'
p137
sg12
g13
(g14
g15
NtRp138
(dp139
g18
I1
sg19
I0
sg20
I5
sg21
I0
sg22
I0
sg23
I1
sg24
I0
sbssg25
S'\x1b\xb5y7#\xdb\xffk{U\x82\xc4\xd0\xe6\xf4\xd7'
p140
ssS'pov_basic_Vector'
p141
(dp142
g6
(dp143
g8
S'pov_basic_Vector.html'
p144
sg10
S'pov.basic.Vector'
p145
sg12
g13
(g14
g15
NtRp146
(dp147
g18
I1
sg19
I0
sg20
I66
sg21
I0
sg22
I0
sg23
I0
sg24
I0
sbssg25
S'|H6@nH\xe7e\xe4f\xb5m\xc4L\x1f\xc1'
p148
ssS'pov_language_directive_Version'
p149
(dp150
g6
(dp151
g8
S'pov_language_directive_Version.html'
p152
sg10
S'pov.language_directive.Version'
p153
sg12
g13
(g14
g15
NtRp154
(dp155
g18
I1
sg19
I0
sg20
I13
sg21
I0
sg22
I0
sg23
I0
sg24
I0
sbssg25
S'\xc1\xc2\xc4ms\x0e\x17R\x02\xa8\xccs\x8e\xde\xa9\xcb'
p156
ssS'pov_other_Camera'
p157
(dp158
g6
(dp159
g8
S'pov_other_Camera.html'
p160
sg10
S'pov.other.Camera'
p161
sg12
g13
(g14
g15
NtRp162
(dp163
g18
I1
sg19
I0
sg20
I14
sg21
I0
sg22
I0
sg23
I0
sg24
I0
sbssg25
S'\xc1\xe8E17D\xcd\xcb\xc7@\xfbO\x00\xd2|\x16'
p164
ssS'pov_csg'
p165
(dp166
g6
(dp167
g8
S'pov_csg.html'
p168
sg10
S'pov.csg'
p169
sg12
g13
(g14
g15
NtRp170
(dp171
g18
I1
sg19
I0
sg20
I1
sg21
I0
sg22
I0
sg23
I0
sg24
I0
sbssg25
S'\xf8\xec2\x9d.\x12-\x8c\xff\xb1\xad\xfe\x91+(\xd0'
p172
ssS'pov_other_SdlSyntaxException'
p173
(dp174
g6
(dp175
g8
S'pov_other_SdlSyntaxException.html'
p176
sg10
S'pov.other.SdlSyntaxException'
p177
sg12
g13
(g14
g15
NtRp178
(dp179
g18
I1
sg19
I0
sg20
I2
sg21
I0
sg22
I0
sg23
I0
sg24
I0
sbssg25
S'-qi\x05\x8d\xdd\x1c\xca\xf5- \xc9\x9d\xc3\xdc\x9b'
p180
ssS'pov_atmeff_Fog'
p181
(dp182
g6
(dp183
g8
S'pov_atmeff_Fog.html'
p184
sg10
S'pov.atmeff.Fog'
p185
sg12
g13
(g14
g15
NtRp186
(dp187
g18
I1
sg19
I0
sg20
I15
sg21
I0
sg22
I0
sg23
I0
sg24
I0
sbssg25
S'\xbc\x08(\x88\xe3bc"\xb2\x1d\xd7\xaf\x8c\x8d\xa2\xfa'
p188
ssS'pov_infinite_solid'
p189
(dp190
g6
(dp191
g8
S'pov_infinite_solid.html'
p192
sg10
S'pov.infinite_solid'
p193
sg12
g13
(g14
g15
NtRp194
(dp195
g18
I1
sg19
I0
sg20
I1
sg21
I0
sg22
I0
sg23
I0
sg24
I0
sbssg25
S'\xf8\xec2\x9d.\x12-\x8c\xff\xb1\xad\xfe\x91+(\xd0'
p196
ssS'pov_atmeff'
p197
(dp198
g6
(dp199
g8
S'pov_atmeff.html'
p200
sg10
S'pov.atmeff'
p201
sg12
g13
(g14
g15
NtRp202
(dp203
g18
I1
sg19
I0
sg20
I1
sg21
I0
sg22
I0
sg23
I0
sg24
I0
sbssg25
S'\xf8\xec2\x9d.\x12-\x8c\xff\xb1\xad\xfe\x91+(\xd0'
p204
ssS'pov_language_directive'
p205
(dp206
g6
(dp207
g8
S'pov_language_directive.html'
p208
sg10
S'pov.language_directive'
p209
sg12
g13
(g14
g15
NtRp210
(dp211
g18
I1
sg19
I0
sg20
I1
sg21
I0
sg22
I0
sg23
I0
sg24
I0
sbssg25
S'\xf8\xec2\x9d.\x12-\x8c\xff\xb1\xad\xfe\x91+(\xd0'
p212
ssS'pov_texture_pattern'
p213
(dp214
g6
(dp215
g8
S'pov_texture_pattern.html'
p216
sg10
S'pov.texture.pattern'
p217
sg12
g13
(g14
g15
NtRp218
(dp219
g18
I1
sg19
I0
sg20
I0
sg21
I0
sg22
I0
sg23
I0
sg24
I0
sbssg25
S'\xa8\x02\x8a\xacO\x8e\x80\xa0O\x7fr\xc9\x07\xf5~\xe8'
p220
ssS'pov_finite_solid_Cylinder'
p221
(dp222
g6
(dp223
g69
S'pov_finite_solid_Cylinder.html'
p224
sg71
S'pov.finite_solid.Cylinder'
p225
sg73
g13
(g14
g15
NtRp226
(dp227
g18
I1
sg19
I0
sg20
I26
sg21
I0
sg22
I0
sg23
I0
sg24
I0
sbssg25
S'l\xa7 \x9f\x06\x06\xd3#\xf9\x98\xbf)/\x10w\xf7'
p228
ssS'pov_finite_solid_Cone'
p229
(dp230
g6
(dp231
g8
S'pov_finite_solid_Cone.html'
p232
sg10
S'pov.finite_solid.Cone'
p233
sg12
g13
(g14
g15
NtRp234
(dp235
g18
I1
sg19
I0
sg20
I28
sg21
I0
sg22
I0
sg23
I19
sg24
I0
sbssg25
S'\x84\x85\x0f%y\xe2\xf1\x8e\x00\xd4\xa5\\j\x870\xd9'
p236
ssS'pov_include'
p237
(dp238
g6
(dp239
g8
S'pov_include.html'
p240
sg10
S'pov.include'
p241
sg12
g13
(g14
g15
NtRp242
(dp243
g18
I1
sg19
I0
sg20
I1
sg21
I0
sg22
I0
sg23
I0
sg24
I0
sbssg25
S'\xf8\xec2\x9d.\x12-\x8c\xff\xb1\xad\xfe\x91+(\xd0'
p244
ssS'pov_finite_patch'
p245
(dp246
g6
(dp247
g8
S'pov_finite_patch.html'
p248
sg10
S'pov.finite_patch'
p249
sg12
g13
(g14
g15
NtRp250
(dp251
g18
I1
sg19
I0
sg20
I1
sg21
I0
sg22
I0
sg23
I0
sg24
I0
sbssg25
S'\xf8\xec2\x9d.\x12-\x8c\xff\xb1\xad\xfe\x91+(\xd0'
p252
ssS'pov_global_settings'
p253
(dp254
g6
(dp255
g8
S'pov_global_settings.html'
p256
sg10
S'pov.global_settings'
p257
sg12
g13
(g14
g15
NtRp258
(dp259
g18
I1
sg19
I0
sg20
I1
sg21
I0
sg22
I0
sg23
I0
sg24
I0
sbssg25
S'\xf8\xec2\x9d.\x12-\x8c\xff\xb1\xad\xfe\x91+(\xd0'
p260
ssS'pov_object_modifier_Translate'
p261
(dp262
g6
(dp263
g8
S'pov_object_modifier_Translate.html'
p264
sg10
S'pov.object_modifier.Translate'
p265
sg12
g13
(g14
g15
NtRp266
(dp267
g18
I1
sg19
I0
sg20
I17
sg21
I0
sg22
I0
sg23
I0
sg24
I0
sbssg25
S"\xf4\x06\xf5\xcc\xec\x12Y\xbe\xb7]\x11\x08\x113\x9d'"
p268
ssS'pov_object_modifier'
p269
(dp270
g6
(dp271
g8
S'pov_object_modifier.html'
p272
sg10
S'pov.object_modifier'
p273
sg12
g13
(g14
g15
NtRp274
(dp275
g18
I1
sg19
I0
sg20
I1
sg21
I0
sg22
I0
sg23
I0
sg24
I0
sbssg25
S'\xf8\xec2\x9d.\x12-\x8c\xff\xb1\xad\xfe\x91+(\xd0'
p276
ssS'pov_texture_Pigment'
p277
(dp278
g6
(dp279
g8
S'pov_texture_Pigment.html'
p280
sg10
S'pov.texture.Pigment'
p281
sg12
g13
(g14
g15
NtRp282
(dp283
g18
I1
sg19
I0
sg20
I11
sg21
I0
sg22
I0
sg23
I0
sg24
I0
sbssg25
S'jG\xf0T\x83y5X\xe1\x8c\x1cG\x8bi@g'
p284
ssS'pov_object_modifier_ObjectModifier'
p285
(dp286
g6
(dp287
g8
S'pov_object_modifier_ObjectModifier.html'
p288
sg10
S'pov.object_modifier.ObjectModifier'
p289
sg12
g13
(g14
g15
NtRp290
(dp291
g18
I1
sg19
I0
sg20
I3
sg21
I0
sg22
I0
sg23
I0
sg24
I0
sbssg25
S'\x0c\xe0#\n]\xe8#\x17\x99\xd0\xfc\xa6$\xca\x90,'
p292
ssS'pov_texture_ColorMap'
p293
(dp294
g6
(dp295
g8
S'pov_texture_ColorMap.html'
p296
sg10
S'pov.texture.ColorMap'
p297
sg12
g13
(g14
g15
NtRp298
(dp299
g18
I1
sg19
I0
sg20
I16
sg21
I0
sg22
I0
sg23
I0
sg24
I0
sbssg25
S'wTO<\xda\xa6\x14\xf9\xf8i\xf7\x19b\xf8\xda\x87'
p300
ssS'pov_texture_Normal'
p301
(dp302
g6
(dp303
g8
S'pov_texture_Normal.html'
p304
sg10
S'pov.texture.Normal'
p305
sg12
g13
(g14
g15
NtRp306
(dp307
g18
I1
sg19
I0
sg20
I8
sg21
I0
sg22
I0
sg23
I0
sg24
I0
sbssg25
S'q\xf7\xe4y\xa9Z\xe6\x04\xe3\xa6<\xe3\xaa|\xec4'
p308
ssS'pov_language_directive_Include'
p309
(dp310
g6
(dp311
g8
S'pov_language_directive_Include.html'
p312
sg10
S'pov.language_directive.Include'
p313
sg12
g13
(g14
g15
NtRp314
(dp315
g18
I1
sg19
I0
sg20
I13
sg21
I0
sg22
I0
sg23
I0
sg24
I0
sbssg25
S'Y\xb8\xb56\x8b0=\xd7\x01ugN\xa41_a'
p316
ssS'pov_finite_solid_Sphere'
p317
(dp318
g6
(dp319
g69
S'pov_finite_solid_Sphere.html'
p320
sg71
S'pov.finite_solid.Sphere'
p321
sg73
g13
(g14
g15
NtRp322
(dp323
g18
I1
sg19
I0
sg20
I17
sg21
I0
sg22
I0
sg23
I0
sg24
I0
sbssg25
S'J`\x81m0\xe0\x93\x08%q\xc1G@f2p'
p324
ssS'pov_finite_solid_JuliaFractal'
p325
(dp326
g6
(dp327
g8
S'pov_finite_solid_JuliaFractal.html'
p328
sg10
S'pov.finite_solid.JuliaFractal'
p329
sg12
g13
(g14
g15
NtRp330
(dp331
g18
I1
sg19
I0
sg20
I17
sg21
I0
sg22
I0
sg23
I5
sg24
I0
sbssg25
S'SH\x8e\xda<\xc0\xa6\xf9\xd8PXh+m\x9d\x9a'
p332
ssS'pov_language_directive_LanguageDirective'
p333
(dp334
g6
(dp335
g8
S'pov_language_directive_LanguageDirective.html'
p336
sg10
S'pov.language_directive.LanguageDirective'
p337
sg12
g13
(g14
g15
NtRp338
(dp339
g18
I1
sg19
I0
sg20
I17
sg21
I0
sg22
I0
sg23
I0
sg24
I0
sbssg25
S'\xa6h\xba\x9b4\xd8\xfc1\x08!\x94\xfck\x82\x13\xf7'
p340
ssS'pov_other_LightSource'
p341
(dp342
g6
(dp343
g8
S'pov_other_LightSource.html'
p344
sg10
S'pov.other.LightSource'
p345
sg12
g13
(g14
g15
NtRp346
(dp347
g18
I1
sg19
I0
sg20
I5
sg21
I0
sg22
I0
sg23
I0
sg24
I0
sbssg25
S'\x87\x80\xd9\xb8ng\xad\x06\xa2\xb6%\xb9\xe4\x92Q\xd5'
p348
ssS'pov_finite_solid_Blob'
p349
(dp350
g6
(dp351
g8
S'pov_finite_solid_Blob.html'
p352
sg10
S'pov.finite_solid.Blob'
p353
sg12
g13
(g14
g15
NtRp354
(dp355
g18
I1
sg19
I0
sg20
I14
sg21
I0
sg22
I0
sg23
I0
sg24
I0
sbssg25
S'v\xafP \x15\x7f\xbd$\xae\r%\x9ej0\xf5.'
p356
ssS'pov_finite_solid_Lathe'
p357
(dp358
g6
(dp359
g8
S'pov_finite_solid_Lathe.html'
p360
sg10
S'pov.finite_solid.Lathe'
p361
sg12
g13
(g14
g15
NtRp362
(dp363
g18
I1
sg19
I0
sg20
I25
sg21
I0
sg22
I0
sg23
I3
sg24
I0
sbssg25
S'\t7GM\xd4\xfd\xdc\xb8N6F\xbd\xa0\x00T\xec'
p364
ssS'pov_texture_Reflection'
p365
(dp366
g6
(dp367
g8
S'pov_texture_Reflection.html'
p368
sg10
S'pov.texture.Reflection'
p369
sg12
g13
(g14
g15
NtRp370
(dp371
g18
I1
sg19
I0
sg20
I8
sg21
I0
sg22
I0
sg23
I0
sg24
I0
sbssg25
S'\nx\xa7\xb6!\x9c\x86\xd4Ki\x1b\xc8\x10\xe9\x12\xbc'
p372
ssS'pov_basic_SceneFile'
p373
(dp374
g6
(dp375
g8
S'pov_basic_SceneFile.html'
p376
sg10
S'pov.basic.SceneFile'
p377
sg12
g13
(g14
g15
NtRp378
(dp379
g18
I1
sg19
I0
sg20
I25
sg21
I0
sg22
I0
sg23
I0
sg24
I0
sbssg25
S'\x9b\x9c\xa7d4\xac\xcb\xc4b\x8d2Qw\x9b\xbd\xa0'
p380
ssS'pov_infinite_solid_Plane'
p381
(dp382
g6
(dp383
g8
S'pov_infinite_solid_Plane.html'
p384
sg10
S'pov.infinite_solid.Plane'
p385
sg12
g13
(g14
g15
NtRp386
(dp387
g18
I1
sg19
I0
sg20
I20
sg21
I0
sg22
I0
sg23
I0
sg24
I0
sbssg25
S'\xe8\x1c:~\xdc\x10[\x1b\xcfKV\xbd\xed\x01\xca\x10'
p388
ssS'pov_global_settings_GlobalSettings'
p389
(dp390
g6
(dp391
g8
S'pov_global_settings_GlobalSettings.html'
p392
sg10
S'pov.global_settings.GlobalSettings'
p393
sg12
g13
(g14
g15
NtRp394
(dp395
g18
I1
sg19
I0
sg20
I13
sg21
I0
sg22
I0
sg23
I0
sg24
I0
sbssg25
S's\x90/p\x1c\xc4\xe0<\xbcuO\xbb\x9b#w\x84'
p396
ssS'pov_basic'
p397
(dp398
g6
(dp399
g8
S'pov_basic.html'
p400
sg10
S'pov.basic'
p401
sg12
g13
(g14
g15
NtRp402
(dp403
g18
I1
sg19
I0
sg20
I1
sg21
I0
sg22
I0
sg23
I0
sg24
I0
sbssg25
S'\xf8\xec2\x9d.\x12-\x8c\xff\xb1\xad\xfe\x91+(\xd0'
p404
ssS'pov_other_IllegalStateException'
p405
(dp406
g6
(dp407
g8
S'pov_other_IllegalStateException.html'
p408
sg10
S'pov.other.IllegalStateException'
p409
sg12
g13
(g14
g15
NtRp410
(dp411
g18
I1
sg19
I0
sg20
I2
sg21
I0
sg22
I0
sg23
I0
sg24
I0
sbssg25
S'\xaf\xd5\xff\x0c\xdd\x90\x10\xe0_1\xdc\x0c0\x08\x9bd'
p412
ssS'pov_basic_BlockObject'
p413
(dp414
g6
(dp415
g8
S'pov_basic_BlockObject.html'
p416
sg10
S'pov.basic.BlockObject'
p417
sg12
g13
(g14
g15
NtRp418
(dp419
g18
I1
sg19
I0
sg20
I28
sg21
I0
sg22
I0
sg23
I0
sg24
I0
sbssg25
S'\xf7\x17\xe7\x88\xb8u\x11\x99\x98\xbf\xd4\xbcw\x87\xac\xad'
p420
sssS'version'
p421
S'3.7.1'
p422
sS'settings'
p423
S'\xc9\xac\xec\xaa\xa98\x1cy\x15R\x17Y4>oV'
p424
sS'format'
p425
I1
s.